target datalayout = "e-m:e-p270:32:32-p271:32:32-p272:64:64-i64:64-i128:128-f80:128-n8:16:32:64-S128"
target triple = "x86_64-pc-linux-gnu"

%struct.darktable_t = type { %struct.dt_codepath_t, i32, i32, ptr, ptr, ptr, ptr, ptr, ptr, ptr, ptr, ptr, ptr, ptr, ptr, ptr, ptr, ptr, ptr, ptr, ptr, ptr, ptr, ptr, ptr, ptr, ptr, ptr, ptr, ptr, [64 x %struct.dt_pthread_mutex_t], %struct.dt_pthread_mutex_t, %struct.dt_pthread_mutex_t, %struct.dt_pthread_mutex_t, %struct.dt_pthread_mutex_t, %struct.dt_pthread_mutex_t, ptr, ptr, ptr, ptr, ptr, ptr, ptr, ptr, ptr, ptr, ptr, ptr, ptr, %struct.dt_lua_state_t, ptr, double, ptr, i32, [47 x i32], i32, i32, ptr, ptr, %struct.dt_sys_resources_t, %struct.dt_backthumb_t, %struct.dt_gimp_t }
%struct.dt_codepath_t = type { i8, [3 x i8] }
%struct.dt_pthread_mutex_t = type { %union.pthread_mutex_t }
%union.pthread_mutex_t = type { %struct.__pthread_mutex_s }
%struct.__pthread_mutex_s = type { i32, i32, i32, i32, i32, i16, i16, %struct.__pthread_internal_list }
%struct.__pthread_internal_list = type { ptr, ptr }
%struct.dt_lua_state_t = type { i32 }
%struct.dt_sys_resources_t = type { i64, i64, ptr, ptr, i32 }
%struct.dt_backthumb_t = type { double, double, i32, i32, i32, i32 }
%struct.dt_gimp_t = type { i32, ptr, ptr, i32, i32 }
%struct.dt_camctl_t = type { %struct.dt_pthread_mutex_t, %struct.dt_pthread_mutex_t, i64, ptr, ptr, ptr, ptr, ptr, ptr, ptr, ptr, i32, i32, i32 }
%struct.dt_camera_t = type { ptr, ptr, %struct.CameraText, ptr, ptr, %struct.dt_pthread_mutex_t, i32, i32, i32, i32, i32, i32, i32, i32, i32, ptr, %struct.dt_pthread_mutex_t, ptr, %struct.anon, ptr, ptr, i32, i32, i32, i32, ptr, i32, i32, i32, i32, i32, i32, i32, i32, i64, %struct.dt_pthread_mutex_t, %struct.dt_pthread_mutex_t }
%struct.CameraText = type { [32768 x i8] }
%struct.anon = type { ptr, i32 }
%struct._CameraFileInfo = type { %struct._CameraFileInfoPreview, %struct._CameraFileInfoFile, %struct._CameraFileInfoAudio }
%struct._CameraFileInfoPreview = type { i32, i32, i64, [64 x i8], i32, i32 }
%struct._CameraFileInfoFile = type { i32, i32, i64, [64 x i8], i32, i32, i32, i64 }
%struct._CameraFileInfoAudio = type { i32, i32, i64, [64 x i8] }

@darktable = external global %struct.darktable_t, align 8
@.str.16 = private unnamed_addr constant [77 x i8] c"[camera_control] failed to get file information of %s in folder %s on device\00", align 1

; Function Attrs: nounwind uwtable
define i64 @dt_camctl_get_image_file_timestamp(ptr noundef %0, ptr noundef %1, ptr noundef %2) #0 {
  %4 = alloca i64, align 8
  %5 = alloca ptr, align 8
  %6 = alloca ptr, align 8
  %7 = alloca ptr, align 8
  %8 = alloca i64, align 8
  %9 = alloca i32, align 4
  %10 = alloca %struct._CameraFileInfo, align 8
  store ptr %0, ptr %5, align 8, !tbaa !6
  store ptr %1, ptr %6, align 8, !tbaa !63
  store ptr %2, ptr %7, align 8, !tbaa !63
  call void @llvm.lifetime.start.p0(i64 8, ptr %8) #10
  store i64 0, ptr %8, align 8, !tbaa !121
  %11 = load ptr, ptr %6, align 8, !tbaa !63
  %12 = icmp ne ptr %11, null
  br i1 %12, label %13, label %16

13:                                               ; preds = %3
  %14 = load ptr, ptr %7, align 8, !tbaa !63
  %15 = icmp ne ptr %14, null
  br i1 %15, label %17, label %16

16:                                               ; preds = %13, %3
  store i64 0, ptr %4, align 8
  store i32 1, ptr %9, align 4
  br label %52

17:                                               ; preds = %13
  call void @llvm.lifetime.start.p0(i64 272, ptr %10) #10
  %18 = load ptr, ptr %5, align 8, !tbaa !6
  %19 = getelementptr inbounds nuw %struct.dt_camctl_t, ptr %18, i32 0, i32 10
  %20 = load ptr, ptr %19, align 8, !tbaa !11
  %21 = getelementptr inbounds nuw %struct.dt_camera_t, ptr %20, i32 0, i32 19
  %22 = load ptr, ptr %21, align 8, !tbaa !96
  %23 = load ptr, ptr %6, align 8, !tbaa !63
  %24 = load ptr, ptr %7, align 8, !tbaa !63
  %25 = load ptr, ptr %5, align 8, !tbaa !6
  %26 = getelementptr inbounds nuw %struct.dt_camctl_t, ptr %25, i32 0, i32 6
  %27 = load ptr, ptr %26, align 8, !tbaa !79
  %28 = call i32 @gp_camera_file_get_info(ptr noundef %22, ptr noundef %23, ptr noundef %24, ptr noundef %10, ptr noundef %27)
  %29 = icmp eq i32 %28, 0
  br i1 %29, label %46, label %30

30:                                               ; preds = %17
  br label %31

31:                                               ; preds = %30
  %32 = load i32, ptr getelementptr inbounds nuw (%struct.darktable_t, ptr @darktable, i32 0, i32 2), align 8, !tbaa !22
  %33 = and i32 32, %32
  %34 = icmp ne i32 %33, 0
  br i1 %34, label %35, label %43

35:                                               ; preds = %31
  %36 = load i32, ptr getelementptr inbounds nuw (%struct.darktable_t, ptr @darktable, i32 0, i32 2), align 8, !tbaa !22
  %37 = xor i32 %36, -1
  %38 = and i32 0, %37
  %39 = icmp ne i32 %38, 0
  br i1 %39, label %43, label %40

40:                                               ; preds = %35
  %41 = load ptr, ptr %7, align 8, !tbaa !63
  %42 = load ptr, ptr %6, align 8, !tbaa !63
  call void (ptr, ...) @dt_print_ext(ptr noundef @.str.16, ptr noundef %41, ptr noundef %42)
  br label %43

43:                                               ; preds = %40, %35, %31
  br label %44

44:                                               ; preds = %43
  br label %45

45:                                               ; preds = %44
  br label %50

46:                                               ; preds = %17
  %47 = getelementptr inbounds nuw %struct._CameraFileInfo, ptr %10, i32 0, i32 1
  %48 = getelementptr inbounds nuw %struct._CameraFileInfoFile, ptr %47, i32 0, i32 7
  %49 = load i64, ptr %48, align 8, !tbaa !132
  store i64 %49, ptr %8, align 8, !tbaa !121
  br label %50

50:                                               ; preds = %46, %45
  %51 = load i64, ptr %8, align 8, !tbaa !121
  store i64 %51, ptr %4, align 8
  store i32 1, ptr %9, align 4
  call void @llvm.lifetime.end.p0(i64 272, ptr %10) #10
  br label %52

52:                                               ; preds = %50, %16
  call void @llvm.lifetime.end.p0(i64 8, ptr %8) #10
  %53 = load i64, ptr %4, align 8
  ret i64 %53
}