; Function Attrs: nounwind uwtable
define i64 @dt_camctl_get_image_file_timestamp(ptr noundef readonly captures(none) %0, ptr noundef %1, ptr noundef %2) local_unnamed_addr #0 {
  %4 = alloca %struct._CameraFileInfo, align 8
  %5 = icmp ne ptr %1, null
  %6 = icmp ne ptr %2, null
  %or.cond = and i1 %5, %6
  br i1 %or.cond, label %7, label %24

7:                                                ; preds = %3
  call void @llvm.lifetime.start.p0(i64 272, ptr nonnull %4) #15
  %8 = getelementptr inbounds nuw i8, ptr %0, i64 144
  %9 = load ptr, ptr %8, align 8, !tbaa !6
  %10 = getelementptr inbounds nuw i8, ptr %9, i64 32952
  %11 = load ptr, ptr %10, align 8, !tbaa !94
  %12 = getelementptr inbounds nuw i8, ptr %0, i64 112
  %13 = load ptr, ptr %12, align 8, !tbaa !73
  %14 = call i32 @gp_camera_file_get_info(ptr noundef %11, ptr noundef nonnull %1, ptr noundef nonnull %2, ptr noundef nonnull %4, ptr noundef %13) #15
  %15 = icmp eq i32 %14, 0
  br i1 %15, label %20, label %16

16:                                               ; preds = %7
  %17 = load i32, ptr getelementptr inbounds nuw (i8, ptr @darktable, i64 8), align 8, !tbaa !19
  %18 = and i32 %17, 32
  %.not = icmp eq i32 %18, 0
  br i1 %.not, label %23, label %19

19:                                               ; preds = %16
  call void (ptr, ...) @dt_print_ext(ptr noundef nonnull @.str.16, ptr noundef nonnull %2, ptr noundef nonnull %1) #15
  br label %23

20:                                               ; preds = %7
  %21 = getelementptr inbounds nuw i8, ptr %4, i64 184
  %22 = load i64, ptr %21, align 8, !tbaa !133
  br label %23

23:                                               ; preds = %16, %19, %20
  %.0 = phi i64 [ %22, %20 ], [ 0, %19 ], [ 0, %16 ]
  call void @llvm.lifetime.end.p0(i64 272, ptr nonnull %4) #15
  br label %24

24:                                               ; preds = %3, %23
  %.010 = phi i64 [ %.0, %23 ], [ 0, %3 ]
  ret i64 %.010
}